target datalayout = "e-m:e-p270:32:32-p271:32:32-p272:64:64-i64:64-i128:128-f80:128-n8:16:32:64-S128"
target triple = "x86_64-pc-linux-gnu"

%struct._generic_two_id_string = type { i32, i32, ptr }

@someip_method_ident = internal global ptr null, align 8
@someip_method_ident_num = internal global i32 0, align 4
@data_someip_methods = internal global ptr null, align 8

; Function Attrs: null_pointer_is_valid sspstrong uwtable
define internal void @reset_someip_method_cb() #0 {
  %1 = load ptr, ptr @data_someip_methods, align 8
  %2 = icmp ne ptr %1, null
  br i1 %2, label %3, label %5

3:                                                ; preds = %0
  %4 = load ptr, ptr @data_someip_methods, align 8
  call void @g_hash_table_destroy(ptr noundef %4)
  store ptr null, ptr @data_someip_methods, align 8
  br label %5

5:                                                ; preds = %3, %0
  ret void
}

; Function Attrs: null_pointer_is_valid sspstrong uwtable
define internal void @post_update_someip_method_cb() #0 {
  %1 = alloca i32, align 4
  %2 = alloca i32, align 4
  call void @reset_someip_method_cb()
  %3 = call ptr @g_hash_table_new_full(ptr noundef @g_direct_hash, ptr noundef @g_direct_equal, ptr noundef null, ptr noundef null)
  store ptr %3, ptr @data_someip_methods, align 8
  call void @llvm.lifetime.start.p0(i64 4, ptr %1) #19
  store i32 0, ptr %1, align 4
  br label %4

4:                                                ; preds = %37, %0
  %5 = load i32, ptr %1, align 4
  %6 = load i32, ptr @someip_method_ident_num, align 4
  %7 = icmp ult i32 %5, %6
  br i1 %7, label %9, label %8

8:                                                ; preds = %4
  call void @llvm.lifetime.end.p0(i64 4, ptr %1) #19
  br label %40

9:                                                ; preds = %4
  call void @llvm.lifetime.start.p0(i64 4, ptr %2) #19
  %10 = load ptr, ptr @someip_method_ident, align 8
  %11 = load i32, ptr %1, align 4
  %12 = zext i32 %11 to i64
  %13 = getelementptr %struct._generic_two_id_string, ptr %10, i64 %12
  %14 = getelementptr inbounds nuw %struct._generic_two_id_string, ptr %13, i32 0, i32 0
  %15 = load i32, ptr %14, align 8
  %16 = and i32 %15, 65535
  %17 = shl i32 %16, 16
  %18 = load ptr, ptr @someip_method_ident, align 8
  %19 = load i32, ptr %1, align 4
  %20 = zext i32 %19 to i64
  %21 = getelementptr %struct._generic_two_id_string, ptr %18, i64 %20
  %22 = getelementptr inbounds nuw %struct._generic_two_id_string, ptr %21, i32 0, i32 1
  %23 = load i32, ptr %22, align 4
  %24 = and i32 %23, 65535
  %25 = or i32 %17, %24
  store i32 %25, ptr %2, align 4
  %26 = load ptr, ptr @data_someip_methods, align 8
  %27 = load i32, ptr %2, align 4
  %28 = zext i32 %27 to i64
  %29 = inttoptr i64 %28 to ptr
  %30 = load ptr, ptr @someip_method_ident, align 8
  %31 = load i32, ptr %1, align 4
  %32 = zext i32 %31 to i64
  %33 = getelementptr %struct._generic_two_id_string, ptr %30, i64 %32
  %34 = getelementptr inbounds nuw %struct._generic_two_id_string, ptr %33, i32 0, i32 2
  %35 = load ptr, ptr %34, align 8
  %36 = call i32 @g_hash_table_insert(ptr noundef %26, ptr noundef %29, ptr noundef %35)
  call void @llvm.lifetime.end.p0(i64 4, ptr %2) #19
  br label %37

37:                                               ; preds = %9
  %38 = load i32, ptr %1, align 4
  %39 = add i32 %38, 1
  store i32 %39, ptr %1, align 4
  br label %4, !llvm.loop !10

40:                                               ; preds = %8
  ret void
}